; ModuleID = 'bench/openusd/original/av1_txfm.c.ll'
source_filename = "bench/openusd/original/av1_txfm.c.ll"
target datalayout = "e-m:e-p270:32:32-p271:32:32-p272:64:64-i64:64-i128:128-f80:128-n8:16:32:64-S128"
target triple = "x86_64-pc-linux-gnu"

@av1_cospi_arr_data = hidden local_unnamed_addr constant [7 x [64 x i32]] [[64 x i32] [i32 1024, i32 1024, i32 1023, i32 1021, i32 1019, i32 1016, i32 1013, i32 1009, i32 1004, i32 999, i32 993, i32 987, i32 980, i32 972, i32 964, i32 955, i32 946, i32 936, i32 926, i32 915, i32 903, i32 891, i32 878, i32 865, i32 851, i32 837, i32 822, i32 807, i32 792, i32 775, i32 759, i32 742, i32 724, i32 706, i32 688, i32 669, i32 650, i32 630, i32 610, i32 590, i32 569, i32 548, i32 526, i32 505, i32 483, i32 460, i32 438, i32 415, i32 392, i32 369, i32 345, i32 321, i32 297, i32 273, i32 249, i32 224, i32 200, i32 175, i32 150, i32 125, i32 100, i32 75, i32 50, i32 25], [64 x i32] [i32 2048, i32 2047, i32 2046, i32 2042, i32 2038, i32 2033, i32 2026, i32 2018, i32 2009, i32 1998, i32 1987, i32 1974, i32 1960, i32 1945, i32 1928, i32 1911, i32 1892, i32 1872, i32 1851, i32 1829, i32 1806, i32 1782, i32 1757, i32 1730, i32 1703, i32 1674, i32 1645, i32 1615, i32 1583, i32 1551, i32 1517, i32 1483, i32 1448, i32 1412, i32 1375, i32 1338, i32 1299, i32 1260, i32 1220, i32 1179, i32 1138, i32 1096, i32 1053, i32 1009, i32 965, i32 921, i32 876, i32 830, i32 784, i32 737, i32 690, i32 642, i32 595, i32 546, i32 498, i32 449, i32 400, i32 350, i32 301, i32 251, i32 201, i32 151, i32 100, i32 50], [64 x i32] [i32 4096, i32 4095, i32 4091, i32 4085, i32 4076, i32 4065, i32 4052, i32 4036, i32 4017, i32 3996, i32 3973, i32 3948, i32 3920, i32 3889, i32 3857, i32 3822, i32 3784, i32 3745, i32 3703, i32 3659, i32 3612, i32 3564, i32 3513, i32 3461, i32 3406, i32 3349, i32 3290, i32 3229, i32 3166, i32 3102, i32 3035, i32 2967, i32 2896, i32 2824, i32 2751, i32 2675, i32 2598, i32 2520, i32 2440, i32 2359, i32 2276, i32 2191, i32 2106, i32 2019, i32 1931, i32 1842, i32 1751, i32 1660, i32 1567, i32 1474, i32 1380, i32 1285, i32 1189, i32 1092, i32 995, i32 897, i32 799, i32 700, i32 601, i32 501, i32 401, i32 301, i32 201, i32 101], [64 x i32] [i32 8192, i32 8190, i32 8182, i32 8170, i32 8153, i32 8130, i32 8103, i32 8071, i32 8035, i32 7993, i32 7946, i32 7895, i32 7839, i32 7779, i32 7713, i32 7643, i32 7568, i32 7489, i32 7405, i32 7317, i32 7225, i32 7128, i32 7027, i32 6921, i32 6811, i32 6698, i32 6580, i32 6458, i32 6333, i32 6203, i32 6070, i32 5933, i32 5793, i32 5649, i32 5501, i32 5351, i32 5197, i32 5040, i32 4880, i32 4717, i32 4551, i32 4383, i32 4212, i32 4038, i32 3862, i32 3683, i32 3503, i32 3320, i32 3135, i32 2948, i32 2760, i32 2570, i32 2378, i32 2185, i32 1990, i32 1795, i32 1598, i32 1401, i32 1202, i32 1003, i32 803, i32 603, i32 402, i32 201], [64 x i32] [i32 16384, i32 16379, i32 16364, i32 16340, i32 16305, i32 16261, i32 16207, i32 16143, i32 16069, i32 15986, i32 15893, i32 15791, i32 15679, i32 15557, i32 15426, i32 15286, i32 15137, i32 14978, i32 14811, i32 14635, i32 14449, i32 14256, i32 14053, i32 13842, i32 13623, i32 13395, i32 13160, i32 12916, i32 12665, i32 12406, i32 12140, i32 11866, i32 11585, i32 11297, i32 11003, i32 10702, i32 10394, i32 10080, i32 9760, i32 9434, i32 9102, i32 8765, i32 8423, i32 8076, i32 7723, i32 7366, i32 7005, i32 6639, i32 6270, i32 5897, i32 5520, i32 5139, i32 4756, i32 4370, i32 3981, i32 3590, i32 3196, i32 2801, i32 2404, i32 2006, i32 1606, i32 1205, i32 804, i32 402], [64 x i32] [i32 32768, i32 32758, i32 32729, i32 32679, i32 32610, i32 32522, i32 32413, i32 32286, i32 32138, i32 31972, i32 31786, i32 31581, i32 31357, i32 31114, i32 30853, i32 30572, i32 30274, i32 29957, i32 29622, i32 29269, i32 28899, i32 28511, i32 28106, i32 27684, i32 27246, i32 26791, i32 26320, i32 25833, i32 25330, i32 24812, i32 24279, i32 23732, i32 23170, i32 22595, i32 22006, i32 21403, i32 20788, i32 20160, i32 19520, i32 18868, i32 18205, i32 17531, i32 16846, i32 16151, i32 15447, i32 14733, i32 14010, i32 13279, i32 12540, i32 11793, i32 11039, i32 10279, i32 9512, i32 8740, i32 7962, i32 7180, i32 6393, i32 5602, i32 4808, i32 4011, i32 3212, i32 2411, i32 1608, i32 804], [64 x i32] [i32 65536, i32 65516, i32 65457, i32 65358, i32 65220, i32 65043, i32 64827, i32 64571, i32 64277, i32 63944, i32 63572, i32 63162, i32 62714, i32 62228, i32 61705, i32 61145, i32 60547, i32 59914, i32 59244, i32 58538, i32 57798, i32 57022, i32 56212, i32 55368, i32 54491, i32 53581, i32 52639, i32 51665, i32 50660, i32 49624, i32 48559, i32 47464, i32 46341, i32 45190, i32 44011, i32 42806, i32 41576, i32 40320, i32 39040, i32 37736, i32 36410, i32 35062, i32 33692, i32 32303, i32 30893, i32 29466, i32 28020, i32 26558, i32 25080, i32 23586, i32 22078, i32 20557, i32 19024, i32 17479, i32 15924, i32 14359, i32 12785, i32 11204, i32 9616, i32 8022, i32 6424, i32 4821, i32 3216, i32 1608]], align 16
@av1_sinpi_arr_data = hidden local_unnamed_addr constant [7 x [5 x i32]] [[5 x i32] [i32 0, i32 330, i32 621, i32 836, i32 951], [5 x i32] [i32 0, i32 660, i32 1241, i32 1672, i32 1901], [5 x i32] [i32 0, i32 1321, i32 2482, i32 3344, i32 3803], [5 x i32] [i32 0, i32 2642, i32 4964, i32 6689, i32 7606], [5 x i32] [i32 0, i32 5283, i32 9929, i32 13377, i32 15212], [5 x i32] [i32 0, i32 10566, i32 19858, i32 26755, i32 30424], [5 x i32] [i32 0, i32 21133, i32 39716, i32 53510, i32 60849]], align 16
@av1_txfm_type_ls = hidden local_unnamed_addr constant [5 x [4 x i8]] [[4 x i8] c"\00\05\05\08", [4 x i8] c"\01\06\06\09", [4 x i8] c"\02\07\07\0A", [4 x i8] c"\03\0D\0D\0B", [4 x i8] c"\04\0D\0D\0D"], align 16
@av1_txfm_stage_num_list = hidden local_unnamed_addr constant [12 x i8] c"\04\06\08\0A\0C\07\08\0A\01\01\01\01", align 1

; Function Attrs: nofree norecurse nosync nounwind memory(argmem: readwrite) uwtable
define hidden void @av1_round_shift_array_c(ptr nocapture noundef %0, i32 noundef %1, i32 noundef %2) local_unnamed_addr #0 {
  %4 = icmp eq i32 %2, 0
  br i1 %4, label %.loopexit, label %5

5:                                                ; preds = %3
  %6 = icmp sgt i32 %2, 0
  %7 = icmp sgt i32 %1, 0
  br i1 %6, label %.preheader, label %.preheader18

.preheader18:                                     ; preds = %5
  br i1 %7, label %.lr.ph, label %.loopexit

.lr.ph:                                           ; preds = %.preheader18
  %8 = sub nsw i32 0, %2
  %9 = zext nneg i32 %8 to i64
  %wide.trip.count = zext nneg i32 %1 to i64
  br label %21

.preheader:                                       ; preds = %5
  br i1 %7, label %.lr.ph22, label %.loopexit

.lr.ph22:                                         ; preds = %.preheader
  %10 = add nsw i32 %2, -1
  %11 = zext nneg i32 %10 to i64
  %12 = shl nuw i64 1, %11
  %13 = zext nneg i32 %2 to i64
  %wide.trip.count28 = zext nneg i32 %1 to i64
  br label %14

14:                                               ; preds = %.lr.ph22, %14
  %indvars.iv25 = phi i64 [ 0, %.lr.ph22 ], [ %indvars.iv.next26, %14 ]
  %15 = getelementptr inbounds i32, ptr %0, i64 %indvars.iv25
  %16 = load i32, ptr %15, align 4
  %17 = sext i32 %16 to i64
  %18 = add nsw i64 %12, %17
  %19 = ashr i64 %18, %13
  %20 = trunc i64 %19 to i32
  store i32 %20, ptr %15, align 4
  %indvars.iv.next26 = add nuw nsw i64 %indvars.iv25, 1
  %exitcond29.not = icmp eq i64 %indvars.iv.next26, %wide.trip.count28
  br i1 %exitcond29.not, label %.loopexit, label %14, !llvm.loop !4

21:                                               ; preds = %.lr.ph, %21
  %indvars.iv = phi i64 [ 0, %.lr.ph ], [ %indvars.iv.next, %21 ]
  %22 = getelementptr inbounds i32, ptr %0, i64 %indvars.iv
  %23 = load i32, ptr %22, align 4
  %24 = sext i32 %23 to i64
  %25 = shl i64 %24, %9
  %26 = tail call i64 @llvm.smin.i64(i64 %25, i64 2147483647)
  %27 = tail call range(i64 -2147483648, 2147483648) i64 @llvm.smax.i64(i64 %26, i64 -2147483648)
  %28 = trunc nsw i64 %27 to i32
  store i32 %28, ptr %22, align 4
  %indvars.iv.next = add nuw nsw i64 %indvars.iv, 1
  %exitcond.not = icmp eq i64 %indvars.iv.next, %wide.trip.count
  br i1 %exitcond.not, label %.loopexit, label %21, !llvm.loop !6

.loopexit:                                        ; preds = %21, %14, %.preheader18, %.preheader, %3
  ret void
}

; Function Attrs: mustprogress nofree norecurse nosync nounwind willreturn memory(none) uwtable
define hidden void @av1_range_check_buf(i32 noundef %0, ptr nocapture noundef readnone %1, ptr nocapture noundef readnone %2, i32 noundef %3, i8 noundef signext %4) local_unnamed_addr #1 {
  ret void
}

; Function Attrs: nocallback nofree nosync nounwind speculatable willreturn memory(none)
declare i64 @llvm.smin.i64(i64, i64) #2

; Function Attrs: nocallback nofree nosync nounwind speculatable willreturn memory(none)
declare i64 @llvm.smax.i64(i64, i64) #2


!llvm.module.flags = !{!0, !1, !2, !3}

!0 = !{i32 1, !"wchar_size", i32 4}
!1 = !{i32 8, !"PIC Level", i32 2}
!2 = !{i32 7, !"uwtable", i32 2}
!3 = !{i32 7, !"frame-pointer", i32 2}
!4 = distinct !{!4, !5}
!5 = !{!"llvm.loop.mustprogress"}
!6 = distinct !{!6, !5}
